target datalayout = "e-m:e-p270:32:32-p271:32:32-p272:64:64-i64:64-i128:128-f80:128-n8:16:32:64-S128"
target triple = "x86_64-pc-linux-gnu"

%struct.mbedtls_cipher_info_t = type { i32, i32, i32, ptr, i32, i32, i32, ptr }
%struct.mbedtls_cipher_context_t = type { ptr, i32, i32, [16 x i8], i64, [16 x i8], i64, ptr }

; Function Attrs: mustprogress nounwind uwtable
define hidden i32 @mbedtls_cipher_finish(ptr noundef %0, ptr noundef %1, ptr noundef %2) #0 {
  %4 = alloca i32, align 4
  %5 = alloca ptr, align 8
  %6 = alloca ptr, align 8
  %7 = alloca ptr, align 8
  store ptr %0, ptr %5, align 8, !tbaa !36
  store ptr %1, ptr %6, align 8, !tbaa !20
  store ptr %2, ptr %7, align 8, !tbaa !56
  br label %8

8:                                                ; preds = %3
  br label %9

9:                                                ; preds = %8
  br label %10

10:                                               ; preds = %9
  br label %11

11:                                               ; preds = %10
  br label %12

12:                                               ; preds = %11
  br label %13

13:                                               ; preds = %12
  %14 = load ptr, ptr %5, align 8, !tbaa !36
  %15 = getelementptr inbounds nuw %struct.mbedtls_cipher_context_t, ptr %14, i32 0, i32 0
  %16 = load ptr, ptr %15, align 8, !tbaa !42
  %17 = icmp eq ptr %16, null
  br i1 %17, label %18, label %19

18:                                               ; preds = %13
  store i32 -24832, ptr %4, align 4
  br label %100

19:                                               ; preds = %13
  %20 = load ptr, ptr %7, align 8, !tbaa !56
  store i64 0, ptr %20, align 8, !tbaa !52
  %21 = load ptr, ptr %5, align 8, !tbaa !36
  %22 = getelementptr inbounds nuw %struct.mbedtls_cipher_context_t, ptr %21, i32 0, i32 0
  %23 = load ptr, ptr %22, align 8, !tbaa !42
  %24 = getelementptr inbounds nuw %struct.mbedtls_cipher_info_t, ptr %23, i32 0, i32 1
  %25 = load i32, ptr %24, align 4, !tbaa !34
  %26 = icmp eq i32 3, %25
  br i1 %26, label %69, label %27

27:                                               ; preds = %19
  %28 = load ptr, ptr %5, align 8, !tbaa !36
  %29 = getelementptr inbounds nuw %struct.mbedtls_cipher_context_t, ptr %28, i32 0, i32 0
  %30 = load ptr, ptr %29, align 8, !tbaa !42
  %31 = getelementptr inbounds nuw %struct.mbedtls_cipher_info_t, ptr %30, i32 0, i32 1
  %32 = load i32, ptr %31, align 4, !tbaa !34
  %33 = icmp eq i32 4, %32
  br i1 %33, label %69, label %34

34:                                               ; preds = %27
  %35 = load ptr, ptr %5, align 8, !tbaa !36
  %36 = getelementptr inbounds nuw %struct.mbedtls_cipher_context_t, ptr %35, i32 0, i32 0
  %37 = load ptr, ptr %36, align 8, !tbaa !42
  %38 = getelementptr inbounds nuw %struct.mbedtls_cipher_info_t, ptr %37, i32 0, i32 1
  %39 = load i32, ptr %38, align 4, !tbaa !34
  %40 = icmp eq i32 5, %39
  br i1 %40, label %69, label %41

41:                                               ; preds = %34
  %42 = load ptr, ptr %5, align 8, !tbaa !36
  %43 = getelementptr inbounds nuw %struct.mbedtls_cipher_context_t, ptr %42, i32 0, i32 0
  %44 = load ptr, ptr %43, align 8, !tbaa !42
  %45 = getelementptr inbounds nuw %struct.mbedtls_cipher_info_t, ptr %44, i32 0, i32 1
  %46 = load i32, ptr %45, align 4, !tbaa !34
  %47 = icmp eq i32 6, %46
  br i1 %47, label %69, label %48

48:                                               ; preds = %41
  %49 = load ptr, ptr %5, align 8, !tbaa !36
  %50 = getelementptr inbounds nuw %struct.mbedtls_cipher_context_t, ptr %49, i32 0, i32 0
  %51 = load ptr, ptr %50, align 8, !tbaa !42
  %52 = getelementptr inbounds nuw %struct.mbedtls_cipher_info_t, ptr %51, i32 0, i32 1
  %53 = load i32, ptr %52, align 4, !tbaa !34
  %54 = icmp eq i32 9, %53
  br i1 %54, label %69, label %55

55:                                               ; preds = %48
  %56 = load ptr, ptr %5, align 8, !tbaa !36
  %57 = getelementptr inbounds nuw %struct.mbedtls_cipher_context_t, ptr %56, i32 0, i32 0
  %58 = load ptr, ptr %57, align 8, !tbaa !42
  %59 = getelementptr inbounds nuw %struct.mbedtls_cipher_info_t, ptr %58, i32 0, i32 1
  %60 = load i32, ptr %59, align 4, !tbaa !34
  %61 = icmp eq i32 10, %60
  br i1 %61, label %69, label %62

62:                                               ; preds = %55
  %63 = load ptr, ptr %5, align 8, !tbaa !36
  %64 = getelementptr inbounds nuw %struct.mbedtls_cipher_context_t, ptr %63, i32 0, i32 0
  %65 = load ptr, ptr %64, align 8, !tbaa !42
  %66 = getelementptr inbounds nuw %struct.mbedtls_cipher_info_t, ptr %65, i32 0, i32 1
  %67 = load i32, ptr %66, align 4, !tbaa !34
  %68 = icmp eq i32 7, %67
  br i1 %68, label %69, label %70

69:                                               ; preds = %62, %55, %48, %41, %34, %27, %19
  store i32 0, ptr %4, align 4
  br label %100

70:                                               ; preds = %62
  %71 = load ptr, ptr %5, align 8, !tbaa !36
  %72 = getelementptr inbounds nuw %struct.mbedtls_cipher_context_t, ptr %71, i32 0, i32 0
  %73 = load ptr, ptr %72, align 8, !tbaa !42
  %74 = getelementptr inbounds nuw %struct.mbedtls_cipher_info_t, ptr %73, i32 0, i32 0
  %75 = load i32, ptr %74, align 8, !tbaa !60
  %76 = icmp eq i32 76, %75
  br i1 %76, label %84, label %77

77:                                               ; preds = %70
  %78 = load ptr, ptr %5, align 8, !tbaa !36
  %79 = getelementptr inbounds nuw %struct.mbedtls_cipher_context_t, ptr %78, i32 0, i32 0
  %80 = load ptr, ptr %79, align 8, !tbaa !42
  %81 = getelementptr inbounds nuw %struct.mbedtls_cipher_info_t, ptr %80, i32 0, i32 0
  %82 = load i32, ptr %81, align 8, !tbaa !60
  %83 = icmp eq i32 77, %82
  br i1 %83, label %84, label %85

84:                                               ; preds = %77, %70
  store i32 0, ptr %4, align 4
  br label %100

85:                                               ; preds = %77
  %86 = load ptr, ptr %5, align 8, !tbaa !36
  %87 = getelementptr inbounds nuw %struct.mbedtls_cipher_context_t, ptr %86, i32 0, i32 0
  %88 = load ptr, ptr %87, align 8, !tbaa !42
  %89 = getelementptr inbounds nuw %struct.mbedtls_cipher_info_t, ptr %88, i32 0, i32 1
  %90 = load i32, ptr %89, align 4, !tbaa !34
  %91 = icmp eq i32 1, %90
  br i1 %91, label %92, label %99

92:                                               ; preds = %85
  %93 = load ptr, ptr %5, align 8, !tbaa !36
  %94 = getelementptr inbounds nuw %struct.mbedtls_cipher_context_t, ptr %93, i32 0, i32 4
  %95 = load i64, ptr %94, align 8, !tbaa !55
  %96 = icmp ne i64 %95, 0
  br i1 %96, label %97, label %98

97:                                               ; preds = %92
  store i32 -25216, ptr %4, align 4
  br label %100

98:                                               ; preds = %92
  store i32 0, ptr %4, align 4
  br label %100

99:                                               ; preds = %85
  store i32 -24704, ptr %4, align 4
  br label %100

100:                                              ; preds = %99, %98, %97, %84, %69, %18
  %101 = load i32, ptr %4, align 4
  ret i32 %101
}