; Function Attrs: mustprogress nofree norecurse nosync nounwind willreturn memory(read, argmem: readwrite, inaccessiblemem: none) uwtable
define hidden range(i32 -25216, 1) i32 @mbedtls_cipher_finish(ptr noundef readonly captures(none) %0, ptr noundef readnone captures(none) %1, ptr noundef writeonly captures(none) %2) local_unnamed_addr #12 {
  %4 = load ptr, ptr %0, align 8, !tbaa !33
  %5 = icmp eq ptr %4, null
  br i1 %5, label %switch.lookup, label %6

6:                                                ; preds = %3
  store i64 0, ptr %2, align 8, !tbaa !43
  %7 = getelementptr inbounds nuw i8, ptr %4, i64 4
  %8 = load i32, ptr %7, align 4, !tbaa !27
  %switch.tableidx = add i32 %8, -3
  %9 = icmp ult i32 %switch.tableidx, 8
  br i1 %9, label %switch.hole_check, label %10

10:                                               ; preds = %switch.hole_check, %6
  %11 = load i32, ptr %4, align 8, !tbaa !46
  %12 = and i32 %11, -2
  %switch = icmp eq i32 %12, 76
  br i1 %switch, label %switch.lookup, label %13

13:                                               ; preds = %10
  %14 = icmp eq i32 %8, 1
  br i1 %14, label %15, label %switch.lookup

15:                                               ; preds = %13
  %16 = getelementptr inbounds nuw i8, ptr %0, i64 32
  %17 = load i64, ptr %16, align 8, !tbaa !42
  %.not = icmp eq i64 %17, 0
  %. = select i1 %.not, i32 0, i32 -25216
  br label %switch.lookup

switch.hole_check:                                ; preds = %6
  %switch.maskindex = trunc nuw i32 %switch.tableidx to i8
  %switch.shifted = lshr i8 -33, %switch.maskindex
  %switch.lobit = trunc i8 %switch.shifted to i1
  br i1 %switch.lobit, label %switch.lookup, label %10

switch.lookup:                                    ; preds = %switch.hole_check, %10, %13, %15, %3
  %.0 = phi i32 [ -24832, %3 ], [ 0, %10 ], [ %., %15 ], [ -24704, %13 ], [ 0, %switch.hole_check ]
  ret i32 %.0
}